target datalayout = "e-m:e-p270:32:32-p271:32:32-p272:64:64-i64:64-i128:128-f80:128-n8:16:32:64-S128"
target triple = "x86_64-pc-linux-gnu"

%union.H5O_fheap_id_t = type { i64 }
%struct.H5A_dense_bt2_corder_rec_t = type { %union.H5O_fheap_id_t, i8, i32 }

@H5A_init_g = external global i8, align 1
@H5_libterm_g = external global i8, align 1

; Function Attrs: nounwind uwtable
define internal i32 @H5A__dense_write_bt2_cb2(ptr noundef %0, ptr noundef %1, ptr noundef %2) #0 {
  %4 = alloca ptr, align 8
  %5 = alloca ptr, align 8
  %6 = alloca ptr, align 8
  %7 = alloca ptr, align 8
  %8 = alloca ptr, align 8
  store ptr %0, ptr %4, align 8, !tbaa !62
  store ptr %1, ptr %5, align 8, !tbaa !62
  store ptr %2, ptr %6, align 8, !tbaa !60
  call void @llvm.lifetime.start.p0(i64 8, ptr %7) #7
  %9 = load ptr, ptr %4, align 8, !tbaa !62
  store ptr %9, ptr %7, align 8, !tbaa !151
  call void @llvm.lifetime.start.p0(i64 8, ptr %8) #7
  %10 = load ptr, ptr %5, align 8, !tbaa !62
  store ptr %10, ptr %8, align 8, !tbaa !62
  %11 = load i8, ptr @H5A_init_g, align 1, !tbaa !16, !range !18, !noundef !19
  %12 = trunc i8 %11 to i1
  br i1 %12, label %17, label %13

13:                                               ; preds = %3
  %14 = load i8, ptr @H5_libterm_g, align 1, !tbaa !16, !range !18, !noundef !19
  %15 = trunc i8 %14 to i1
  %16 = xor i1 %15, true
  br label %17

17:                                               ; preds = %13, %3
  %18 = phi i1 [ true, %3 ], [ %16, %13 ]
  %19 = xor i1 %18, true
  %20 = xor i1 %19, true
  %21 = zext i1 %20 to i32
  %22 = sext i32 %21 to i64
  %23 = call i64 @llvm.expect.i64(i64 %22, i64 1)
  %24 = icmp ne i64 %23, 0
  br i1 %24, label %25, label %30

25:                                               ; preds = %17
  %26 = load ptr, ptr %7, align 8, !tbaa !151
  %27 = getelementptr inbounds nuw %struct.H5A_dense_bt2_corder_rec_t, ptr %26, i32 0, i32 0
  %28 = load ptr, ptr %8, align 8, !tbaa !62
  call void @llvm.memcpy.p0.p0.i64(ptr align 8 %27, ptr align 8 %28, i64 8, i1 false), !tbaa.struct !73
  %29 = load ptr, ptr %6, align 8, !tbaa !60
  store i8 1, ptr %29, align 1, !tbaa !16
  br label %30

30:                                               ; preds = %25, %17
  call void @llvm.lifetime.end.p0(i64 8, ptr %8) #7
  call void @llvm.lifetime.end.p0(i64 8, ptr %7) #7
  ret i32 0
}